target datalayout = "e-m:e-p270:32:32-p271:32:32-p272:64:64-i64:64-i128:128-f80:128-n8:16:32:64-S128"
target triple = "x86_64-pc-linux-gnu"

%struct._packet_info = type { ptr, ptr, i32, i32, %struct.nstime_t, %struct.nstime_t, %struct.nstime_t, i8, ptr, ptr, ptr, ptr, %struct._address, %struct._address, %struct._address, %struct._address, %struct._address, %struct._address, i32, ptr, i8, [3 x i8], %struct.anon, i32, i32, i32, i32, ptr, i8, ptr, ptr, i16, i16, i32, i32, i16, i32, i32, ptr, ptr, ptr, i8, i8, i16, i16, i16, i32, i16, i16, ptr, ptr, ptr, ptr, ptr, i32, i32 }
%struct.nstime_t = type { i64, i32 }
%struct._address = type { i32, i32, ptr, ptr }
%struct.anon = type { i8, [3 x i8] }

@proto_e2ap = internal global i32 0, align 4

; Function Attrs: null_pointer_is_valid sspstrong uwtable
define internal ptr @get_ran_functionid_table(ptr noundef %0) #2 {
  %2 = alloca ptr, align 8
  %3 = alloca ptr, align 8
  %4 = alloca ptr, align 8
  store ptr %0, ptr %2, align 8
  call void @llvm.lifetime.start.p0(i64 8, ptr %3) #10
  call void @llvm.lifetime.start.p0(i64 8, ptr %4) #10
  store ptr null, ptr %4, align 8
  %5 = load ptr, ptr %2, align 8
  %6 = getelementptr inbounds nuw %struct._packet_info, ptr %5, i32 0, i32 3
  %7 = load i32, ptr %6, align 4
  %8 = load ptr, ptr %2, align 8
  %9 = getelementptr inbounds nuw %struct._packet_info, ptr %8, i32 0, i32 15
  %10 = load ptr, ptr %2, align 8
  %11 = getelementptr inbounds nuw %struct._packet_info, ptr %10, i32 0, i32 14
  %12 = load ptr, ptr %2, align 8
  %13 = getelementptr inbounds nuw %struct._packet_info, ptr %12, i32 0, i32 23
  %14 = load i32, ptr %13, align 8
  %15 = call i32 @conversation_pt_to_endpoint_type(i32 noundef %14)
  %16 = load ptr, ptr %2, align 8
  %17 = getelementptr inbounds nuw %struct._packet_info, ptr %16, i32 0, i32 25
  %18 = load i32, ptr %17, align 8
  %19 = load ptr, ptr %2, align 8
  %20 = getelementptr inbounds nuw %struct._packet_info, ptr %19, i32 0, i32 24
  %21 = load i32, ptr %20, align 4
  %22 = call ptr @find_conversation(i32 noundef %7, ptr noundef %9, ptr noundef %11, i32 noundef %15, i32 noundef %18, i32 noundef %21, i32 noundef 0)
  store ptr %22, ptr %3, align 8
  %23 = load ptr, ptr %3, align 8
  %24 = icmp ne ptr %23, null
  br i1 %24, label %49, label %25

25:                                               ; preds = %1
  %26 = load ptr, ptr %2, align 8
  %27 = getelementptr inbounds nuw %struct._packet_info, ptr %26, i32 0, i32 3
  %28 = load i32, ptr %27, align 4
  %29 = load ptr, ptr %2, align 8
  %30 = getelementptr inbounds nuw %struct._packet_info, ptr %29, i32 0, i32 15
  %31 = load ptr, ptr %2, align 8
  %32 = getelementptr inbounds nuw %struct._packet_info, ptr %31, i32 0, i32 14
  %33 = load ptr, ptr %2, align 8
  %34 = getelementptr inbounds nuw %struct._packet_info, ptr %33, i32 0, i32 23
  %35 = load i32, ptr %34, align 8
  %36 = call i32 @conversation_pt_to_endpoint_type(i32 noundef %35)
  %37 = load ptr, ptr %2, align 8
  %38 = getelementptr inbounds nuw %struct._packet_info, ptr %37, i32 0, i32 25
  %39 = load i32, ptr %38, align 8
  %40 = load ptr, ptr %2, align 8
  %41 = getelementptr inbounds nuw %struct._packet_info, ptr %40, i32 0, i32 24
  %42 = load i32, ptr %41, align 4
  %43 = call ptr @conversation_new(i32 noundef %28, ptr noundef %30, ptr noundef %32, i32 noundef %36, i32 noundef %39, i32 noundef %42, i32 noundef 0)
  store ptr %43, ptr %3, align 8
  %44 = call ptr @wmem_file_scope()
  %45 = call noalias ptr @wmem_alloc0(ptr noundef %44, i64 noundef 8200) #12
  store ptr %45, ptr %4, align 8
  %46 = load ptr, ptr %3, align 8
  %47 = load i32, ptr @proto_e2ap, align 4
  %48 = load ptr, ptr %4, align 8
  call void @conversation_add_proto_data(ptr noundef %46, i32 noundef %47, ptr noundef %48)
  br label %53

49:                                               ; preds = %1
  %50 = load ptr, ptr %3, align 8
  %51 = load i32, ptr @proto_e2ap, align 4
  %52 = call ptr @conversation_get_proto_data(ptr noundef %50, i32 noundef %51)
  store ptr %52, ptr %4, align 8
  br label %53

53:                                               ; preds = %49, %25
  %54 = load ptr, ptr %4, align 8
  call void @llvm.lifetime.end.p0(i64 8, ptr %4) #10
  call void @llvm.lifetime.end.p0(i64 8, ptr %3) #10
  ret ptr %54
}