; Function Attrs: null_pointer_is_valid sspstrong uwtable
define internal fastcc ptr @get_ran_functionid_table(ptr noundef %0) unnamed_addr #2 {
  %2 = getelementptr inbounds nuw i8, ptr %0, i64 20
  %3 = load i32, ptr %2, align 4
  %4 = getelementptr inbounds nuw i8, ptr %0, i64 184
  %5 = getelementptr inbounds nuw i8, ptr %0, i64 160
  %6 = getelementptr inbounds nuw i8, ptr %0, i64 280
  %7 = load i32, ptr %6, align 8
  %8 = tail call i32 @conversation_pt_to_endpoint_type(i32 noundef %7)
  %9 = getelementptr inbounds nuw i8, ptr %0, i64 288
  %10 = load i32, ptr %9, align 8
  %11 = getelementptr inbounds nuw i8, ptr %0, i64 284
  %12 = load i32, ptr %11, align 4
  %13 = tail call ptr @find_conversation(i32 noundef %3, ptr noundef nonnull %4, ptr noundef nonnull %5, i32 noundef %8, i32 noundef %10, i32 noundef %12, i32 noundef 0)
  %.not = icmp eq ptr %13, null
  br i1 %.not, label %14, label %24

14:                                               ; preds = %1
  %15 = load i32, ptr %2, align 4
  %16 = load i32, ptr %6, align 8
  %17 = tail call i32 @conversation_pt_to_endpoint_type(i32 noundef %16)
  %18 = load i32, ptr %9, align 8
  %19 = load i32, ptr %11, align 4
  %20 = tail call ptr @conversation_new(i32 noundef %15, ptr noundef nonnull %4, ptr noundef nonnull %5, i32 noundef %17, i32 noundef %18, i32 noundef %19, i32 noundef 0)
  %21 = tail call ptr @wmem_file_scope()
  %22 = tail call noalias dereferenceable_or_null(8200) ptr @wmem_alloc0(ptr noundef %21, i64 noundef 8200) #10
  %23 = load i32, ptr @proto_e2ap, align 4
  tail call void @conversation_add_proto_data(ptr noundef %20, i32 noundef %23, ptr noundef %22)
  br label %27

24:                                               ; preds = %1
  %25 = load i32, ptr @proto_e2ap, align 4
  %26 = tail call ptr @conversation_get_proto_data(ptr noundef nonnull %13, i32 noundef %25)
  br label %27

27:                                               ; preds = %24, %14
  %.0 = phi ptr [ %26, %24 ], [ %22, %14 ]
  ret ptr %.0
}